; Function Attrs: nounwind uwtable
define internal ptr @lua_pushfstring(ptr noundef %0, ptr noundef %1, ...) unnamed_addr #0 {
  %3 = alloca [1 x %struct.__va_list_tag], align 16
  call void @llvm.lifetime.start.p0(i64 24, ptr nonnull %3) #35
  %4 = getelementptr inbounds nuw i8, ptr %0, i64 32
  %5 = load ptr, ptr %4, align 8, !tbaa !29
  %6 = getelementptr inbounds nuw i8, ptr %5, i64 120
  %7 = load i64, ptr %6, align 8, !tbaa !54
  %8 = getelementptr inbounds nuw i8, ptr %5, i64 112
  %9 = load i64, ptr %8, align 8, !tbaa !66
  %.not = icmp ult i64 %7, %9
  br i1 %.not, label %45, label %10

10:                                               ; preds = %2
  %11 = getelementptr inbounds nuw i8, ptr %5, i64 148
  %12 = load i32, ptr %11, align 4, !tbaa !56
  %13 = mul i32 %12, 10
  %14 = zext i32 %13 to i64
  %15 = icmp eq i32 %13, 0
  %spec.store.select.i = select i1 %15, i64 9223372036854775806, i64 %14
  %16 = sub nuw i64 %7, %9
  %17 = getelementptr inbounds nuw i8, ptr %5, i64 136
  %18 = load i64, ptr %17, align 8, !tbaa !57
  %19 = add i64 %16, %18
  store i64 %19, ptr %17, align 8, !tbaa !57
  %20 = getelementptr inbounds nuw i8, ptr %5, i64 33
  br label %21

21:                                               ; preds = %21, %10
  %.0.i = phi i64 [ %spec.store.select.i, %10 ], [ %23, %21 ]
  %22 = tail call fastcc i64 @singlestep(ptr noundef %0)
  %23 = sub nsw i64 %.0.i, %22
  %24 = load i8, ptr %20, align 1, !tbaa !50
  %25 = icmp ne i8 %24, 0
  %26 = icmp sgt i64 %23, 0
  %or.cond.i = select i1 %25, i1 %26, i1 false
  br i1 %or.cond.i, label %21, label %27, !llvm.loop !67

27:                                               ; preds = %21
  br i1 %25, label %28, label %37

28:                                               ; preds = %27
  %29 = load i64, ptr %17, align 8, !tbaa !57
  %30 = icmp ult i64 %29, 1024
  br i1 %30, label %31, label %34

31:                                               ; preds = %28
  %32 = load i64, ptr %6, align 8, !tbaa !54
  %33 = add i64 %32, 1024
  br label %luaC_step.exit

34:                                               ; preds = %28
  %35 = add i64 %29, -1024
  store i64 %35, ptr %17, align 8, !tbaa !57
  %36 = load i64, ptr %6, align 8, !tbaa !54
  br label %luaC_step.exit

37:                                               ; preds = %27
  %38 = getelementptr inbounds nuw i8, ptr %5, i64 128
  %39 = load i64, ptr %38, align 8, !tbaa !68
  %40 = udiv i64 %39, 100
  %41 = getelementptr inbounds nuw i8, ptr %5, i64 144
  %42 = load i32, ptr %41, align 8, !tbaa !55
  %43 = sext i32 %42 to i64
  %44 = mul i64 %40, %43
  br label %luaC_step.exit

luaC_step.exit:                                   ; preds = %31, %34, %37
  %.sink.i = phi i64 [ %33, %31 ], [ %36, %34 ], [ %44, %37 ]
  store i64 %.sink.i, ptr %8, align 8, !tbaa !66
  br label %45

45:                                               ; preds = %luaC_step.exit, %2
  call void @llvm.va_start.p0(ptr nonnull %3)
  %46 = call fastcc ptr @luaO_pushvfstring(ptr noundef %0, ptr noundef %1, ptr noundef %3)
  call void @llvm.va_end.p0(ptr nonnull %3)
  call void @llvm.lifetime.end.p0(i64 24, ptr nonnull %3) #35
  ret ptr %46
}